; Function Attrs: mustprogress uwtable
define hidden noundef i64 @_ZNK6google8protobuf7Message13SpaceUsedLongEv(ptr noundef nonnull align 8 dereferenceable(16) %0) unnamed_addr #3 align 2 {
  %2 = load ptr, ptr %0, align 8, !tbaa !3
  %3 = getelementptr inbounds nuw i8, ptr %2, i64 136
  %4 = load ptr, ptr %3, align 8
  %5 = tail call { ptr, ptr } %4(ptr noundef nonnull align 8 dereferenceable(16) %0)
  %6 = extractvalue { ptr, ptr } %5, 1
  %7 = tail call noundef i64 @_ZNK6google8protobuf10Reflection13SpaceUsedLongERKNS0_7MessageE(ptr noundef nonnull align 8 dereferenceable(96) %6, ptr noundef nonnull align 8 dereferenceable(16) %0)
  ret i64 %7
}